target datalayout = "e-m:e-p270:32:32-p271:32:32-p272:64:64-i64:64-i128:128-f80:128-n8:16:32:64-S128"
target triple = "x86_64-unknown-linux-gnu"

@def_control_mpage = internal unnamed_addr constant [12 x i8] c"\0A\0A\02\00\00\00\00\00\FF\FF\00\1E", align 1
@.str.11 = private unnamed_addr constant [59 x i8] c"\013ata%u.%02u: NCQ priority must be disabled to enable CDL\0A\00", align 1

; Function Attrs: fn_ret_thunk_extern nounwind null_pointer_is_valid
define internal fastcc noundef i32 @ata_mselect_control(ptr nocapture noundef %0, i8 noundef zeroext %1, ptr nocapture noundef readonly %2, i32 noundef %3, ptr nocapture noundef writeonly %4) unnamed_addr #0 align 16 {
  %6 = alloca [12 x i8], align 1
  switch i8 %1, label %91 [
    i8 0, label %7
    i8 -14, label %49
  ]

7:                                                ; preds = %5
  %8 = getelementptr inbounds i8, ptr %0, i64 8
  %9 = load ptr, ptr %8, align 8
  call void @llvm.lifetime.start.p0(i64 12, ptr nonnull %6) #20
  call void @llvm.memset.p0.i64(ptr noundef nonnull align 1 dereferenceable(12) %6, i8 0, i64 12, i1 false), !annotation !8
  %10 = icmp eq i32 %3, 10
  br i1 %10, label %14, label %11

11:                                               ; preds = %7
  %12 = tail call i32 @llvm.smin.i32(i32 %3, i32 10)
  %13 = trunc i32 %12 to i16
  store i16 %13, ptr %4, align 2
  br label %47

14:                                               ; preds = %7
  %15 = load i8, ptr %2, align 1
  call void @llvm.memcpy.p0.p0.i64(ptr noundef nonnull align 1 dereferenceable(12) %6, ptr noundef nonnull align 1 dereferenceable(12) @def_control_mpage, i64 12, i1 false)
  %16 = getelementptr inbounds i8, ptr %9, i64 16
  %17 = load i64, ptr %16, align 16
  %18 = trunc i64 %17 to i32
  %19 = lshr i32 %18, 27
  %20 = getelementptr inbounds i8, ptr %6, i64 2
  %21 = load i8, ptr %20, align 1
  %22 = trunc i32 %19 to i8
  %23 = and i8 %22, 4
  %24 = or i8 %23, %21
  store i8 %24, ptr %20, align 1
  br label %25

25:                                               ; preds = %37, %14
  %26 = phi i64 [ 0, %14 ], [ %38, %37 ]
  %27 = icmp eq i64 %26, 0
  br i1 %27, label %37, label %28

28:                                               ; preds = %25
  %29 = add nuw nsw i64 %26, 2
  %30 = getelementptr [12 x i8], ptr %6, i64 0, i64 %29
  %31 = load i8, ptr %30, align 1
  %32 = getelementptr i8, ptr %2, i64 %26
  %33 = load i8, ptr %32, align 1
  %34 = icmp eq i8 %31, %33
  br i1 %34, label %37, label %35

35:                                               ; preds = %28
  %36 = trunc i64 %26 to i16
  store i16 %36, ptr %4, align 2
  br label %47

37:                                               ; preds = %28, %25
  %38 = add nuw nsw i64 %26, 1
  %39 = icmp eq i64 %38, 10
  br i1 %39, label %40, label %25, !llvm.loop !45

40:                                               ; preds = %37
  %41 = and i8 %15, 4
  %42 = icmp eq i8 %41, 0
  br i1 %42, label %45, label %43

43:                                               ; preds = %40
  %44 = or i64 %17, 536870912
  store i64 %44, ptr %16, align 16
  br label %47

45:                                               ; preds = %40
  %46 = and i64 %17, -536870913
  store i64 %46, ptr %16, align 16
  br label %47

47:                                               ; preds = %45, %43, %35, %11
  %48 = phi i32 [ -22, %11 ], [ -22, %35 ], [ 0, %45 ], [ 0, %43 ]
  call void @llvm.lifetime.end.p0(i64 12, ptr nonnull %6) #20
  br label %91

49:                                               ; preds = %5
  %50 = getelementptr inbounds i8, ptr %0, i64 8
  %51 = load ptr, ptr %50, align 8
  %52 = getelementptr inbounds i8, ptr %0, i64 32
  %53 = icmp eq i32 %3, 12
  br i1 %53, label %57, label %54

54:                                               ; preds = %49
  %55 = tail call i32 @llvm.smin.i32(i32 %3, i32 12)
  %56 = trunc i32 %55 to i16
  store i16 %56, ptr %4, align 2
  br label %91

57:                                               ; preds = %49
  %58 = load i8, ptr %2, align 1
  %59 = and i8 %58, 3
  switch i8 %59, label %82 [
    i8 0, label %60
    i8 2, label %64
  ]

60:                                               ; preds = %57
  %61 = getelementptr inbounds i8, ptr %51, i64 16
  %62 = load i64, ptr %61, align 16
  %63 = and i64 %62, -2097153
  store i64 %63, ptr %61, align 16
  br label %83

64:                                               ; preds = %57
  %65 = getelementptr inbounds i8, ptr %51, i64 16
  %66 = load i64, ptr %65, align 16
  %67 = and i64 %66, 1048576
  %68 = icmp eq i64 %67, 0
  br i1 %68, label %80, label %69

69:                                               ; preds = %64
  %70 = load ptr, ptr %51, align 64
  %71 = load ptr, ptr %70, align 64
  %72 = getelementptr inbounds i8, ptr %71, i64 36
  %73 = load i32, ptr %72, align 4
  %74 = getelementptr inbounds i8, ptr %70, i64 8
  %75 = load i32, ptr %74, align 8
  %76 = getelementptr inbounds i8, ptr %51, i64 8
  %77 = load i32, ptr %76, align 8
  %78 = add i32 %77, %75
  %79 = tail call i32 (ptr, ...) @_printk(ptr noundef nonnull @.str.11, i32 noundef %73, i32 noundef %78) #23
  br label %91

80:                                               ; preds = %64
  %81 = or i64 %66, 2097152
  store i64 %81, ptr %65, align 16
  br label %83

82:                                               ; preds = %57
  store i16 0, ptr %4, align 2
  br label %91

83:                                               ; preds = %80, %60
  %84 = phi i8 [ 1, %80 ], [ 0, %60 ]
  %85 = load i64, ptr %52, align 8
  %86 = or i64 %85, 6
  store i64 %86, ptr %52, align 8
  %87 = getelementptr inbounds i8, ptr %0, i64 40
  store i8 0, ptr %87, align 8
  %88 = getelementptr inbounds i8, ptr %0, i64 53
  store i8 -17, ptr %88, align 1
  %89 = getelementptr inbounds i8, ptr %0, i64 47
  store i8 13, ptr %89, align 1
  %90 = getelementptr inbounds i8, ptr %0, i64 48
  store i8 %84, ptr %90, align 8
  br label %91

91:                                               ; preds = %83, %82, %69, %54, %47, %5
  %92 = phi i32 [ %48, %47 ], [ -22, %5 ], [ -22, %54 ], [ -22, %82 ], [ -22, %69 ], [ 1, %83 ]
  ret i32 %92
}