; Function Attrs: fn_ret_thunk_extern nounwind null_pointer_is_valid
define internal fastcc noundef i32 @ata_mselect_control(ptr nocapture noundef %0, i8 noundef zeroext %1, ptr nocapture noundef readonly %2, i32 noundef %3, ptr nocapture noundef writeonly %4) unnamed_addr #0 align 16 {
  switch i8 %1, label %81 [
    i8 0, label %6
    i8 -14, label %39
  ]

6:                                                ; preds = %5
  %7 = icmp eq i32 %3, 10
  br i1 %7, label %11, label %8

8:                                                ; preds = %6
  %9 = tail call i32 @llvm.smin.i32(i32 %3, i32 10)
  %10 = trunc i32 %9 to i16
  store i16 %10, ptr %4, align 2
  br label %81

11:                                               ; preds = %6
  %12 = getelementptr inbounds i8, ptr %0, i64 8
  %13 = load ptr, ptr %12, align 8
  %14 = load i8, ptr %2, align 1
  %15 = getelementptr inbounds i8, ptr %13, i64 16
  %16 = load i64, ptr %15, align 16
  br label %17

17:                                               ; preds = %29, %11
  %18 = phi i64 [ 0, %11 ], [ %30, %29 ]
  %19 = icmp eq i64 %18, 0
  br i1 %19, label %29, label %20

20:                                               ; preds = %17
  %21 = add nuw nsw i64 %18, 2
  %22 = getelementptr [12 x i8], ptr @def_control_mpage, i64 0, i64 %21
  %23 = load i8, ptr %22, align 1
  %24 = getelementptr i8, ptr %2, i64 %18
  %25 = load i8, ptr %24, align 1
  %26 = icmp eq i8 %23, %25
  br i1 %26, label %29, label %27

27:                                               ; preds = %20
  %28 = trunc i64 %18 to i16
  store i16 %28, ptr %4, align 2
  br label %81

29:                                               ; preds = %20, %17
  %30 = add nuw nsw i64 %18, 1
  %31 = icmp eq i64 %30, 10
  br i1 %31, label %32, label %17, !llvm.loop !50

32:                                               ; preds = %29
  %33 = and i8 %14, 4
  %34 = icmp eq i8 %33, 0
  br i1 %34, label %37, label %35

35:                                               ; preds = %32
  %36 = or i64 %16, 536870912
  store i64 %36, ptr %15, align 16
  br label %81

37:                                               ; preds = %32
  %38 = and i64 %16, -536870913
  store i64 %38, ptr %15, align 16
  br label %81

39:                                               ; preds = %5
  %40 = getelementptr inbounds i8, ptr %0, i64 8
  %41 = load ptr, ptr %40, align 8
  %42 = getelementptr inbounds i8, ptr %0, i64 32
  %43 = icmp eq i32 %3, 12
  br i1 %43, label %47, label %44

44:                                               ; preds = %39
  %45 = tail call i32 @llvm.smin.i32(i32 %3, i32 12)
  %46 = trunc i32 %45 to i16
  store i16 %46, ptr %4, align 2
  br label %81

47:                                               ; preds = %39
  %48 = load i8, ptr %2, align 1
  %49 = and i8 %48, 3
  switch i8 %49, label %72 [
    i8 0, label %50
    i8 2, label %54
  ]

50:                                               ; preds = %47
  %51 = getelementptr inbounds i8, ptr %41, i64 16
  %52 = load i64, ptr %51, align 16
  %53 = and i64 %52, -2097153
  store i64 %53, ptr %51, align 16
  br label %73

54:                                               ; preds = %47
  %55 = getelementptr inbounds i8, ptr %41, i64 16
  %56 = load i64, ptr %55, align 16
  %57 = and i64 %56, 1048576
  %58 = icmp eq i64 %57, 0
  br i1 %58, label %70, label %59

59:                                               ; preds = %54
  %60 = load ptr, ptr %41, align 64
  %61 = load ptr, ptr %60, align 64
  %62 = getelementptr inbounds i8, ptr %61, i64 36
  %63 = load i32, ptr %62, align 4
  %64 = getelementptr inbounds i8, ptr %60, i64 8
  %65 = load i32, ptr %64, align 8
  %66 = getelementptr inbounds i8, ptr %41, i64 8
  %67 = load i32, ptr %66, align 8
  %68 = add i32 %67, %65
  %69 = tail call i32 (ptr, ...) @_printk(ptr noundef nonnull @.str.11, i32 noundef %63, i32 noundef %68) #22
  br label %81

70:                                               ; preds = %54
  %71 = or i64 %56, 2097152
  store i64 %71, ptr %55, align 16
  br label %73

72:                                               ; preds = %47
  store i16 0, ptr %4, align 2
  br label %81

73:                                               ; preds = %70, %50
  %74 = phi i8 [ 1, %70 ], [ 0, %50 ]
  %75 = load i64, ptr %42, align 8
  %76 = or i64 %75, 6
  store i64 %76, ptr %42, align 8
  %77 = getelementptr inbounds i8, ptr %0, i64 40
  store i8 0, ptr %77, align 8
  %78 = getelementptr inbounds i8, ptr %0, i64 53
  store i8 -17, ptr %78, align 1
  %79 = getelementptr inbounds i8, ptr %0, i64 47
  store i8 13, ptr %79, align 1
  %80 = getelementptr inbounds i8, ptr %0, i64 48
  store i8 %74, ptr %80, align 8
  br label %81

81:                                               ; preds = %8, %27, %35, %37, %73, %72, %59, %44, %5
  %82 = phi i32 [ -22, %5 ], [ -22, %44 ], [ -22, %72 ], [ -22, %59 ], [ 1, %73 ], [ -22, %8 ], [ -22, %27 ], [ 0, %37 ], [ 0, %35 ]
  ret i32 %82
}